; Function Attrs: nounwind uwtable
define void @assert_equal_u(i64 noundef %0, i64 noundef %1, ptr noundef %2, i32 noundef %3) local_unnamed_addr #6 {
  %.not = icmp eq i64 %0, %1
  br i1 %.not, label %6, label %5

5:                                                ; preds = %4
  tail call void (ptr, ...) @CTEST_ERR(ptr noundef nonnull @.str.8, ptr noundef %2, i32 noundef %3, i64 noundef %0, i64 noundef %1)
  unreachable

6:                                                ; preds = %4
  ret void
}